; Function Attrs: mustprogress nofree norecurse nosync nounwind willreturn memory(argmem: read) uwtable
define dso_local noundef zeroext i1 @_ZNK4llvm10DwarfDebug15alwaysUseRangesERKNS_16DwarfCompileUnitE(ptr noundef nonnull readonly align 8 captures(none) dereferenceable(5828) %0, ptr noundef nonnull readnone align 8 captures(none) dereferenceable(696) %1) local_unnamed_addr #12 align 2 {
  %3 = getelementptr inbounds nuw i8, ptr %0, i64 3464
  %4 = load i32, ptr %3, align 8
  switch i32 %4, label %5 [
    i32 2, label %10
    i32 0, label %6
  ]

5:                                                ; preds = %2
  br label %10

6:                                                ; preds = %2
  %7 = getelementptr inbounds nuw i8, ptr %0, i64 3473
  %8 = load i8, ptr %7, align 1
  %9 = trunc i8 %8 to i1
  br label %10

10:                                               ; preds = %6, %2, %5
  %.0 = phi i1 [ false, %5 ], [ true, %2 ], [ %9, %6 ]
  ret i1 %.0
}